; Function Attrs: nounwind uwtable
define ptr @l_Fin_reduceNatOp(ptr noundef %0, ptr noundef %1, ptr noundef %2, ptr noundef %3, ptr noundef %4, ptr readnone captures(none) %5, ptr readnone captures(none) %6, ptr readnone captures(none) %7, ptr noundef %8, ptr noundef %9, ptr noundef %10, ptr noundef %11, ptr noundef %12) local_unnamed_addr #1 {
  %14 = tail call zeroext i8 @l_Lean_Expr_isAppOfArity(ptr noundef %4, ptr noundef %0, ptr noundef %1) #4
  %15 = icmp eq i8 %14, 0
  br i1 %15, label %16, label %78

16:                                               ; preds = %13
  %17 = ptrtoint ptr %11 to i64
  %18 = and i64 %17, 1
  %.not = icmp eq i64 %18, 0
  br i1 %.not, label %19, label %lean_dec.exit32

19:                                               ; preds = %16
  %20 = load i32, ptr %11, align 4, !tbaa !10
  %21 = icmp sgt i32 %20, 1
  br i1 %21, label %22, label %24, !prof !13

22:                                               ; preds = %19
  %23 = add nsw i32 %20, -1
  store i32 %23, ptr %11, align 4, !tbaa !10
  br label %lean_dec.exit32

24:                                               ; preds = %19
  %.not.i = icmp eq i32 %20, 0
  br i1 %.not.i, label %lean_dec.exit32, label %25

25:                                               ; preds = %24
  tail call void @lean_dec_ref_cold(ptr noundef nonnull %11) #4
  br label %lean_dec.exit32

lean_dec.exit32:                                  ; preds = %25, %24, %22, %16
  %26 = ptrtoint ptr %10 to i64
  %27 = and i64 %26, 1
  %.not43 = icmp eq i64 %27, 0
  br i1 %.not43, label %28, label %lean_dec.exit31

28:                                               ; preds = %lean_dec.exit32
  %29 = load i32, ptr %10, align 4, !tbaa !10
  %30 = icmp sgt i32 %29, 1
  br i1 %30, label %31, label %33, !prof !13

31:                                               ; preds = %28
  %32 = add nsw i32 %29, -1
  store i32 %32, ptr %10, align 4, !tbaa !10
  br label %lean_dec.exit31

33:                                               ; preds = %28
  %.not.i33 = icmp eq i32 %29, 0
  br i1 %.not.i33, label %lean_dec.exit31, label %34

34:                                               ; preds = %33
  tail call void @lean_dec_ref_cold(ptr noundef nonnull %10) #4
  br label %lean_dec.exit31

lean_dec.exit31:                                  ; preds = %34, %33, %31, %lean_dec.exit32
  %35 = ptrtoint ptr %9 to i64
  %36 = and i64 %35, 1
  %.not44 = icmp eq i64 %36, 0
  br i1 %.not44, label %37, label %lean_dec.exit30

37:                                               ; preds = %lean_dec.exit31
  %38 = load i32, ptr %9, align 4, !tbaa !10
  %39 = icmp sgt i32 %38, 1
  br i1 %39, label %40, label %42, !prof !13

40:                                               ; preds = %37
  %41 = add nsw i32 %38, -1
  store i32 %41, ptr %9, align 4, !tbaa !10
  br label %lean_dec.exit30

42:                                               ; preds = %37
  %.not.i35 = icmp eq i32 %38, 0
  br i1 %.not.i35, label %lean_dec.exit30, label %43

43:                                               ; preds = %42
  tail call void @lean_dec_ref_cold(ptr noundef nonnull %9) #4
  br label %lean_dec.exit30

lean_dec.exit30:                                  ; preds = %43, %42, %40, %lean_dec.exit31
  %44 = ptrtoint ptr %8 to i64
  %45 = and i64 %44, 1
  %.not45 = icmp eq i64 %45, 0
  br i1 %.not45, label %46, label %lean_dec.exit29

46:                                               ; preds = %lean_dec.exit30
  %47 = load i32, ptr %8, align 4, !tbaa !10
  %48 = icmp sgt i32 %47, 1
  br i1 %48, label %49, label %51, !prof !13

49:                                               ; preds = %46
  %50 = add nsw i32 %47, -1
  store i32 %50, ptr %8, align 4, !tbaa !10
  br label %lean_dec.exit29

51:                                               ; preds = %46
  %.not.i37 = icmp eq i32 %47, 0
  br i1 %.not.i37, label %lean_dec.exit29, label %52

52:                                               ; preds = %51
  tail call void @lean_dec_ref_cold(ptr noundef nonnull %8) #4
  br label %lean_dec.exit29

lean_dec.exit29:                                  ; preds = %52, %51, %49, %lean_dec.exit30
  %53 = ptrtoint ptr %3 to i64
  %54 = and i64 %53, 1
  %.not46 = icmp eq i64 %54, 0
  br i1 %.not46, label %55, label %lean_dec.exit28

55:                                               ; preds = %lean_dec.exit29
  %56 = load i32, ptr %3, align 4, !tbaa !10
  %57 = icmp sgt i32 %56, 1
  br i1 %57, label %58, label %60, !prof !13

58:                                               ; preds = %55
  %59 = add nsw i32 %56, -1
  store i32 %59, ptr %3, align 4, !tbaa !10
  br label %lean_dec.exit28

60:                                               ; preds = %55
  %.not.i39 = icmp eq i32 %56, 0
  br i1 %.not.i39, label %lean_dec.exit28, label %61

61:                                               ; preds = %60
  tail call void @lean_dec_ref_cold(ptr noundef nonnull %3) #4
  br label %lean_dec.exit28

lean_dec.exit28:                                  ; preds = %61, %60, %58, %lean_dec.exit29
  %62 = ptrtoint ptr %2 to i64
  %63 = and i64 %62, 1
  %.not47 = icmp eq i64 %63, 0
  br i1 %.not47, label %64, label %lean_dec.exit

64:                                               ; preds = %lean_dec.exit28
  %65 = load i32, ptr %2, align 4, !tbaa !10
  %66 = icmp sgt i32 %65, 1
  br i1 %66, label %67, label %69, !prof !13

67:                                               ; preds = %64
  %68 = add nsw i32 %65, -1
  store i32 %68, ptr %2, align 4, !tbaa !10
  br label %lean_dec.exit

69:                                               ; preds = %64
  %.not.i41 = icmp eq i32 %65, 0
  br i1 %.not.i41, label %lean_dec.exit, label %70

70:                                               ; preds = %69
  tail call void @lean_dec_ref_cold(ptr noundef nonnull %2) #4
  br label %lean_dec.exit

lean_dec.exit:                                    ; preds = %70, %69, %67, %lean_dec.exit28
  %71 = load ptr, ptr @l_Fin_reduceOp___lambda__1___closed__1, align 8, !tbaa !5
  tail call void @lean_inc_heartbeat() #4
  %72 = tail call noalias ptr @mi_malloc_small(i64 noundef 24) #4
  %73 = icmp eq ptr %72, null
  br i1 %73, label %74, label %lean_alloc_ctor.exit

74:                                               ; preds = %lean_dec.exit
  tail call void @lean_internal_panic_out_of_memory() #5
  unreachable

lean_alloc_ctor.exit:                             ; preds = %lean_dec.exit
  %75 = getelementptr inbounds nuw i8, ptr %72, i64 4
  store i32 1, ptr %72, align 4, !tbaa !10
  store i32 131096, ptr %75, align 4
  %76 = getelementptr inbounds nuw i8, ptr %72, i64 8
  store ptr %71, ptr %76, align 8, !tbaa !5
  %77 = getelementptr inbounds nuw i8, ptr %72, i64 16
  store ptr %12, ptr %77, align 8, !tbaa !5
  br label %80

78:                                               ; preds = %13
  %79 = tail call ptr @l_Fin_reduceNatOp___lambda__1(ptr noundef %4, ptr noundef %3, ptr noundef %2, ptr nonnull poison, ptr poison, ptr poison, ptr poison, ptr noundef %8, ptr noundef %9, ptr noundef %10, ptr noundef %11, ptr noundef %12)
  br label %80

80:                                               ; preds = %78, %lean_alloc_ctor.exit
  %.0 = phi ptr [ %72, %lean_alloc_ctor.exit ], [ %79, %78 ]
  ret ptr %.0
}